target datalayout = "e-m:e-p270:32:32-p271:32:32-p272:64:64-i64:64-i128:128-f80:128-n8:16:32:64-S128"
target triple = "x86_64-pc-linux-gnu"

%struct.H5T_t = type { %struct.H5O_shared_t, ptr, %struct.H5O_loc_t, %struct.H5G_name_t, ptr }
%struct.H5O_shared_t = type { i32, ptr, i32, %union.anon.0 }
%union.anon.0 = type { %struct.H5O_mesg_loc_t }
%struct.H5O_mesg_loc_t = type { i32, i64 }
%struct.H5O_loc_t = type { ptr, i64, i8 }
%struct.H5G_name_t = type { ptr, ptr, i32 }
%struct.H5VL_datatype_specific_args_t = type { i32, %union.anon.10 }
%union.anon.10 = type { %struct.anon.11 }
%struct.anon.11 = type { i64 }
%struct.anon.12 = type { i64 }

@.str = private unnamed_addr constant [113 x i8] c"generated/home/dtcxzyw/WorkSpace/Projects/compilers/llvm-opt-benchmark/bench/hdf5/hdf5/src/H5VLnative_datatype.c\00", align 1
@H5E_DATATYPE_g = external global i64, align 8
@H5E_VOL_g = external global i64, align 8
@__func__.H5VL__native_datatype_specific = private unnamed_addr constant [31 x i8] c"H5VL__native_datatype_specific\00", align 1
@H5E_DATASET_g = external global i64, align 8
@H5E_UNSUPPORTED_g = external global i64, align 8
@.str.13 = private unnamed_addr constant [38 x i8] c"H5Oflush isn't supported for parallel\00", align 1
@H5E_CANTFLUSH_g = external global i64, align 8
@.str.14 = private unnamed_addr constant [25 x i8] c"unable to flush datatype\00", align 1
@H5E_CANTLOAD_g = external global i64, align 8
@.str.15 = private unnamed_addr constant [27 x i8] c"unable to refresh datatype\00", align 1
@.str.16 = private unnamed_addr constant [27 x i8] c"invalid specific operation\00", align 1

; Function Attrs: nounwind uwtable
define i32 @H5VL__native_datatype_specific(ptr noundef %0, ptr noundef %1, i64 noundef %2, ptr noundef %3) #0 {
  %5 = alloca ptr, align 8
  %6 = alloca ptr, align 8
  %7 = alloca i64, align 8
  %8 = alloca ptr, align 8
  %9 = alloca ptr, align 8
  %10 = alloca i32, align 4
  %11 = alloca i8, align 1
  store ptr %0, ptr %5, align 8
  store ptr %1, ptr %6, align 8
  store i64 %2, ptr %7, align 8
  store ptr %3, ptr %8, align 8
  %12 = load ptr, ptr %5, align 8
  store ptr %12, ptr %9, align 8
  store i32 0, ptr %10, align 4
  store i8 0, ptr %11, align 1
  %13 = load ptr, ptr %6, align 8
  %14 = getelementptr inbounds %struct.H5VL_datatype_specific_args_t, ptr %13, i32 0, i32 0
  %15 = load i32, ptr %14, align 8
  switch i32 %15, label %87 [
    i32 0, label %16
    i32 1, label %62
  ]

16:                                               ; preds = %4
  %17 = load ptr, ptr %9, align 8
  %18 = getelementptr inbounds %struct.H5T_t, ptr %17, i32 0, i32 2
  %19 = getelementptr inbounds %struct.H5O_loc_t, ptr %18, i32 0, i32 0
  %20 = load ptr, ptr %19, align 8
  %21 = call zeroext i1 @H5F_has_feature(ptr noundef %20, i32 noundef 256)
  br i1 %21, label %22, label %37

22:                                               ; preds = %16
  br label %23

23:                                               ; preds = %22
  br label %24

24:                                               ; preds = %23
  br label %25

25:                                               ; preds = %24
  %26 = load i64, ptr @H5E_DATASET_g, align 8
  %27 = load i64, ptr @H5E_UNSUPPORTED_g, align 8
  %28 = call i32 (ptr, ptr, i32, i64, i64, ptr, ...) @H5E_printf_stack(ptr noundef @.str, ptr noundef @__func__.H5VL__native_datatype_specific, i32 noundef 242, i64 noundef %26, i64 noundef %27, ptr noundef @.str.13)
  br label %29

29:                                               ; preds = %25
  store i8 1, ptr %11, align 1
  %30 = load i8, ptr %11, align 1
  %31 = trunc i8 %30 to i1
  %32 = zext i1 %31 to i8
  store i8 %32, ptr %11, align 1
  br label %33

33:                                               ; preds = %29
  br label %34

34:                                               ; preds = %33
  store i32 -1, ptr %10, align 4
  br label %103

35:                                               ; No predecessors!
  br label %36

36:                                               ; preds = %35
  br label %37

37:                                               ; preds = %36, %16
  %38 = load ptr, ptr %9, align 8
  %39 = getelementptr inbounds %struct.H5T_t, ptr %38, i32 0, i32 2
  %40 = load ptr, ptr %6, align 8
  %41 = getelementptr inbounds %struct.H5VL_datatype_specific_args_t, ptr %40, i32 0, i32 1
  %42 = getelementptr inbounds %struct.anon.11, ptr %41, i32 0, i32 0
  %43 = load i64, ptr %42, align 8
  %44 = call i32 @H5O_flush_common(ptr noundef %39, i64 noundef %43)
  %45 = icmp slt i32 %44, 0
  br i1 %45, label %46, label %61

46:                                               ; preds = %37
  br label %47

47:                                               ; preds = %46
  br label %48

48:                                               ; preds = %47
  br label %49

49:                                               ; preds = %48
  %50 = load i64, ptr @H5E_DATATYPE_g, align 8
  %51 = load i64, ptr @H5E_CANTFLUSH_g, align 8
  %52 = call i32 (ptr, ptr, i32, i64, i64, ptr, ...) @H5E_printf_stack(ptr noundef @.str, ptr noundef @__func__.H5VL__native_datatype_specific, i32 noundef 245, i64 noundef %50, i64 noundef %51, ptr noundef @.str.14)
  br label %53

53:                                               ; preds = %49
  store i8 1, ptr %11, align 1
  %54 = load i8, ptr %11, align 1
  %55 = trunc i8 %54 to i1
  %56 = zext i1 %55 to i8
  store i8 %56, ptr %11, align 1
  br label %57

57:                                               ; preds = %53
  br label %58

58:                                               ; preds = %57
  store i32 -1, ptr %10, align 4
  br label %103

59:                                               ; No predecessors!
  br label %60

60:                                               ; preds = %59
  br label %61

61:                                               ; preds = %60, %37
  br label %102

62:                                               ; preds = %4
  %63 = load ptr, ptr %9, align 8
  %64 = getelementptr inbounds %struct.H5T_t, ptr %63, i32 0, i32 2
  %65 = load ptr, ptr %6, align 8
  %66 = getelementptr inbounds %struct.H5VL_datatype_specific_args_t, ptr %65, i32 0, i32 1
  %67 = getelementptr inbounds %struct.anon.12, ptr %66, i32 0, i32 0
  %68 = load i64, ptr %67, align 8
  %69 = call i32 @H5O_refresh_metadata(ptr noundef %64, i64 noundef %68)
  %70 = icmp slt i32 %69, 0
  br i1 %70, label %71, label %86

71:                                               ; preds = %62
  br label %72

72:                                               ; preds = %71
  br label %73

73:                                               ; preds = %72
  br label %74

74:                                               ; preds = %73
  %75 = load i64, ptr @H5E_DATATYPE_g, align 8
  %76 = load i64, ptr @H5E_CANTLOAD_g, align 8
  %77 = call i32 (ptr, ptr, i32, i64, i64, ptr, ...) @H5E_printf_stack(ptr noundef @.str, ptr noundef @__func__.H5VL__native_datatype_specific, i32 noundef 253, i64 noundef %75, i64 noundef %76, ptr noundef @.str.15)
  br label %78

78:                                               ; preds = %74
  store i8 1, ptr %11, align 1
  %79 = load i8, ptr %11, align 1
  %80 = trunc i8 %79 to i1
  %81 = zext i1 %80 to i8
  store i8 %81, ptr %11, align 1
  br label %82

82:                                               ; preds = %78
  br label %83

83:                                               ; preds = %82
  store i32 -1, ptr %10, align 4
  br label %103

84:                                               ; No predecessors!
  br label %85

85:                                               ; preds = %84
  br label %86

86:                                               ; preds = %85, %62
  br label %102

87:                                               ; preds = %4
  br label %88

88:                                               ; preds = %87
  br label %89

89:                                               ; preds = %88
  br label %90

90:                                               ; preds = %89
  %91 = load i64, ptr @H5E_VOL_g, align 8
  %92 = load i64, ptr @H5E_UNSUPPORTED_g, align 8
  %93 = call i32 (ptr, ptr, i32, i64, i64, ptr, ...) @H5E_printf_stack(ptr noundef @.str, ptr noundef @__func__.H5VL__native_datatype_specific, i32 noundef 259, i64 noundef %91, i64 noundef %92, ptr noundef @.str.16)
  br label %94

94:                                               ; preds = %90
  store i8 1, ptr %11, align 1
  %95 = load i8, ptr %11, align 1
  %96 = trunc i8 %95 to i1
  %97 = zext i1 %96 to i8
  store i8 %97, ptr %11, align 1
  br label %98

98:                                               ; preds = %94
  br label %99

99:                                               ; preds = %98
  store i32 -1, ptr %10, align 4
  br label %103

100:                                              ; No predecessors!
  br label %101

101:                                              ; preds = %100
  br label %102

102:                                              ; preds = %101, %86, %61
  br label %103

103:                                              ; preds = %102, %99, %83, %58, %34
  %104 = load i32, ptr %10, align 4
  ret i32 %104
}