; Function Attrs: nounwind uwtable
define range(i32 -1, 1) i32 @H5VL__native_datatype_specific(ptr noundef %0, ptr nocapture noundef readonly %1, i64 noundef %2, ptr nocapture noundef readnone %3) local_unnamed_addr #0 {
  %5 = load i32, ptr %1, align 8
  switch i32 %5, label %33 [
    i32 0, label %6
    i32 1, label %23
  ]

6:                                                ; preds = %4
  %7 = getelementptr inbounds i8, ptr %0, i64 48
  %8 = load ptr, ptr %7, align 8
  %9 = tail call zeroext i1 @H5F_has_feature(ptr noundef %8, i32 noundef 256) #2
  br i1 %9, label %10, label %14

10:                                               ; preds = %6
  %11 = load i64, ptr @H5E_DATASET_g, align 8
  %12 = load i64, ptr @H5E_UNSUPPORTED_g, align 8
  %13 = tail call i32 (ptr, ptr, i32, i64, i64, ptr, ...) @H5E_printf_stack(ptr noundef nonnull @.str, ptr noundef nonnull @__func__.H5VL__native_datatype_specific, i32 noundef 242, i64 noundef %11, i64 noundef %12, ptr noundef nonnull @.str.13) #2
  br label %37

14:                                               ; preds = %6
  %15 = getelementptr inbounds i8, ptr %1, i64 8
  %16 = load i64, ptr %15, align 8
  %17 = tail call i32 @H5O_flush_common(ptr noundef nonnull %7, i64 noundef %16) #2
  %18 = icmp slt i32 %17, 0
  br i1 %18, label %19, label %37

19:                                               ; preds = %14
  %20 = load i64, ptr @H5E_DATATYPE_g, align 8
  %21 = load i64, ptr @H5E_CANTFLUSH_g, align 8
  %22 = tail call i32 (ptr, ptr, i32, i64, i64, ptr, ...) @H5E_printf_stack(ptr noundef nonnull @.str, ptr noundef nonnull @__func__.H5VL__native_datatype_specific, i32 noundef 245, i64 noundef %20, i64 noundef %21, ptr noundef nonnull @.str.14) #2
  br label %37

23:                                               ; preds = %4
  %24 = getelementptr inbounds i8, ptr %0, i64 48
  %25 = getelementptr inbounds i8, ptr %1, i64 8
  %26 = load i64, ptr %25, align 8
  %27 = tail call i32 @H5O_refresh_metadata(ptr noundef nonnull %24, i64 noundef %26) #2
  %28 = icmp slt i32 %27, 0
  br i1 %28, label %29, label %37

29:                                               ; preds = %23
  %30 = load i64, ptr @H5E_DATATYPE_g, align 8
  %31 = load i64, ptr @H5E_CANTLOAD_g, align 8
  %32 = tail call i32 (ptr, ptr, i32, i64, i64, ptr, ...) @H5E_printf_stack(ptr noundef nonnull @.str, ptr noundef nonnull @__func__.H5VL__native_datatype_specific, i32 noundef 253, i64 noundef %30, i64 noundef %31, ptr noundef nonnull @.str.15) #2
  br label %37

33:                                               ; preds = %4
  %34 = load i64, ptr @H5E_VOL_g, align 8
  %35 = load i64, ptr @H5E_UNSUPPORTED_g, align 8
  %36 = tail call i32 (ptr, ptr, i32, i64, i64, ptr, ...) @H5E_printf_stack(ptr noundef nonnull @.str, ptr noundef nonnull @__func__.H5VL__native_datatype_specific, i32 noundef 259, i64 noundef %34, i64 noundef %35, ptr noundef nonnull @.str.16) #2
  br label %37

37:                                               ; preds = %14, %23, %33, %29, %19, %10
  %.0 = phi i32 [ -1, %33 ], [ -1, %29 ], [ 0, %23 ], [ -1, %10 ], [ -1, %19 ], [ 0, %14 ]
  ret i32 %.0
}